; Function Attrs: mustprogress uwtable
define void @_ZNK11OpenImageIO6v3_1_011ColorConfig22getNamedTransformNamesB5cxx11Ev(ptr dead_on_unwind noalias writable sret(%"class.std::vector.34") align 8 initializes((0, 24)) %0, ptr noundef nonnull readonly align 8 captures(none) dereferenceable(8) %1) local_unnamed_addr #5 align 2 personality ptr @__gxx_personality_v0 {
  %3 = alloca ptr, align 8
  tail call void @llvm.memset.p0.i64(ptr noundef nonnull align 8 dereferenceable(24) %0, i8 0, i64 24, i1 false)
  %4 = load ptr, ptr %1, align 8, !tbaa !140
  %5 = load ptr, ptr %4, align 8, !tbaa !30
  %6 = icmp ne ptr %5, null
  %7 = load i32, ptr @_ZN11OpenImageIO6v3_1_0L12disable_ocioE, align 4
  %8 = icmp eq i32 %7, 0
  %or.cond.not.i = select i1 %6, i1 %8, i1 false
  br i1 %or.cond.not.i, label %_ZNK11OpenImageIO6v3_1_011ColorConfig21getNumNamedTransformsEv.exit, label %._crit_edge

_ZNK11OpenImageIO6v3_1_011ColorConfig21getNumNamedTransformsEv.exit: ; preds = %2
  %9 = tail call noundef i32 @_ZNK16OpenColorIO_v2_46Config21getNumNamedTransformsEv(ptr noundef nonnull align 8 dereferenceable(8) %5) #34
  %.not12 = icmp eq i32 %9, 0
  br i1 %.not12, label %._crit_edge, label %.lr.ph

.lr.ph:                                           ; preds = %_ZNK11OpenImageIO6v3_1_011ColorConfig21getNumNamedTransformsEv.exit, %18
  %.0813 = phi i32 [ %19, %18 ], [ 0, %_ZNK11OpenImageIO6v3_1_011ColorConfig21getNumNamedTransformsEv.exit ]
  call void @llvm.lifetime.start.p0(i64 8, ptr nonnull %3) #34
  %10 = load ptr, ptr %1, align 8, !tbaa !140
  %11 = load ptr, ptr %10, align 8, !tbaa !30
  %12 = icmp ne ptr %11, null
  %13 = load i32, ptr @_ZN11OpenImageIO6v3_1_0L12disable_ocioE, align 4
  %14 = icmp eq i32 %13, 0
  %or.cond.not.i10 = select i1 %12, i1 %14, i1 false
  br i1 %or.cond.not.i10, label %15, label %_ZNK11OpenImageIO6v3_1_011ColorConfig28getNamedTransformNameByIndexEi.exit

15:                                               ; preds = %.lr.ph
  %16 = call noundef ptr @_ZNK16OpenColorIO_v2_46Config28getNamedTransformNameByIndexEi(ptr noundef nonnull align 8 dereferenceable(8) %11, i32 noundef %.0813) #34
  br label %_ZNK11OpenImageIO6v3_1_011ColorConfig28getNamedTransformNameByIndexEi.exit

_ZNK11OpenImageIO6v3_1_011ColorConfig28getNamedTransformNameByIndexEi.exit: ; preds = %15, %.lr.ph
  %.0.i11 = phi ptr [ %16, %15 ], [ null, %.lr.ph ]
  store ptr %.0.i11, ptr %3, align 8, !tbaa !106
  %17 = invoke noundef nonnull align 8 dereferenceable(32) ptr @_ZNSt6vectorINSt7__cxx1112basic_stringIcSt11char_traitsIcESaIcEEESaIS5_EE12emplace_backIJPKcEEERS5_DpOT_(ptr noundef nonnull align 8 dereferenceable(24) %0, ptr noundef nonnull align 8 dereferenceable(8) %3)
          to label %18 unwind label %20

18:                                               ; preds = %_ZNK11OpenImageIO6v3_1_011ColorConfig28getNamedTransformNameByIndexEi.exit
  call void @llvm.lifetime.end.p0(i64 8, ptr nonnull %3) #34
  %19 = add nuw nsw i32 %.0813, 1
  %.not = icmp eq i32 %19, %9
  br i1 %.not, label %._crit_edge, label %.lr.ph, !llvm.loop !211

20:                                               ; preds = %_ZNK11OpenImageIO6v3_1_011ColorConfig28getNamedTransformNameByIndexEi.exit
  %21 = landingpad { ptr, i32 }
          cleanup
  call void @llvm.lifetime.end.p0(i64 8, ptr nonnull %3) #34
  call void @_ZNSt6vectorINSt7__cxx1112basic_stringIcSt11char_traitsIcESaIcEEESaIS5_EED2Ev(ptr noundef nonnull align 8 dereferenceable(24) %0) #34
  resume { ptr, i32 } %21

._crit_edge:                                      ; preds = %18, %2, %_ZNK11OpenImageIO6v3_1_011ColorConfig21getNumNamedTransformsEv.exit
  ret void
}